(dp1
S'medium violet red'
p2
(F0.7803921568627451
F0.082352941176470587
F0.52156862745098043
tp3
sS'pale goldenrod'
p4
(F0.93333333333333335
F0.90980392156862744
F0.66666666666666663
tp5
sS'yellow'
p6
(F1
F1
F0
tp7
sS'grey61'
p8
(F0.61176470588235299
F0.61176470588235299
F0.61176470588235299
tp9
sS'grey60'
p10
(F0.59999999999999998
F0.59999999999999998
F0.59999999999999998
tp11
sS'grey63'
p12
(F0.63137254901960782
F0.63137254901960782
F0.63137254901960782
tp13
sS'grey62'
p14
(F0.61960784313725492
F0.61960784313725492
F0.61960784313725492
tp15
sS'grey65'
p16
(F0.65098039215686276
F0.65098039215686276
F0.65098039215686276
tp17
sS'AliceBlue'
p18
(F0.94117647058823528
F0.97254901960784312
F1
tp19
sS'slate gray'
p20
(F0.4392156862745098
F0.50196078431372548
F0.56470588235294117
tp21
sS'grey66'
p22
(F0.6588235294117647
F0.6588235294117647
F0.6588235294117647
tp23
sS'LightCyan1'
p24
(F0.8784313725490196
F1
F1
tp25
sS'grey68'
p26
(F0.67843137254901964
F0.67843137254901964
F0.67843137254901964
tp27
sS'LightCyan3'
p28
(F0.70588235294117652
F0.80392156862745101
F0.80392156862745101
tp29
sS'LightCyan2'
p30
(F0.81960784313725488
F0.93333333333333335
F0.93333333333333335
tp31
sS'LightCyan4'
p32
(F0.47843137254901963
F0.54509803921568623
F0.54509803921568623
tp33
sS'gray32'
p34
(F0.32156862745098042
F0.32156862745098042
F0.32156862745098042
tp35
sS'gray33'
p36
(F0.32941176470588235
F0.32941176470588235
F0.32941176470588235
tp37
sS'DarkTurquoise'
p38
(F0
F0.80784313725490198
F0.81960784313725488
tp39
sS'gray31'
p40
(F0.30980392156862746
F0.30980392156862746
F0.30980392156862746
tp41
sS'gray36'
p42
(F0.36078431372549019
F0.36078431372549019
F0.36078431372549019
tp43
sS'gray37'
p44
(F0.36862745098039218
F0.36862745098039218
F0.36862745098039218
tp45
sS'gray34'
p46
(F0.3411764705882353
F0.3411764705882353
F0.3411764705882353
tp47
sS'gray35'
p48
(F0.34901960784313724
F0.34901960784313724
F0.34901960784313724
tp49
sS'aquamarine4'
p50
(F0.27058823529411763
F0.54509803921568623
F0.45490196078431372
tp51
sS'gray38'
p52
(F0.38039215686274508
F0.38039215686274508
F0.38039215686274508
tp53
sS'gray39'
p54
(F0.38823529411764707
F0.38823529411764707
F0.38823529411764707
tp55
sS'aquamarine1'
p56
(F0.49803921568627452
F1
F0.83137254901960789
tp57
sS'aquamarine3'
p58
(F0.40000000000000002
F0.80392156862745101
F0.66666666666666663
tp59
sS'aquamarine2'
p60
(F0.46274509803921571
F0.93333333333333335
F0.77647058823529413
tp61
sS'misty rose'
p62
(F1
F0.89411764705882357
F0.88235294117647056
tp63
sS'CadetBlue3'
p64
(F0.47843137254901963
F0.77254901960784317
F0.80392156862745101
tp65
sS'CadetBlue2'
p66
(F0.55686274509803924
F0.89803921568627454
F0.93333333333333335
tp67
sS'CadetBlue1'
p68
(F0.59607843137254901
F0.96078431372549022
F1
tp69
sS'VioletRed1'
p70
(F1
F0.24313725490196078
F0.58823529411764708
tp71
sS'VioletRed2'
p72
(F0.93333333333333335
F0.22745098039215686
F0.5490196078431373
tp73
sS'HotPink4'
p74
(F0.54509803921568623
F0.22745098039215686
F0.3843137254901961
tp75
sS'VioletRed4'
p76
(F0.54509803921568623
F0.13333333333333333
F0.32156862745098042
tp77
sS'brown'
p78
(F0.6470588235294118
F0.16470588235294117
F0.16470588235294117
tp79
sS'DarkGoldenrod'
p80
(F0.72156862745098038
F0.52549019607843139
F0.043137254901960784
tp81
sS'gray8'
p82
(F0.078431372549019607
F0.078431372549019607
F0.078431372549019607
tp83
sS'SlateGrey'
p84
(F0.4392156862745098
F0.50196078431372548
F0.56470588235294117
tp85
sS'NavajoWhite2'
p86
(F0.93333333333333335
F0.81176470588235294
F0.63137254901960782
tp87
sS'gray2'
p88
(F0.019607843137254902
F0.019607843137254902
F0.019607843137254902
tp89
sS'cyan'
p90
(F0
F1
F1
tp91
sS'gray0'
p92
(F0
F0
F0
tp93
sS'gray1'
p94
(F0.011764705882352941
F0.011764705882352941
F0.011764705882352941
tp95
sS'gray6'
p96
(F0.058823529411764705
F0.058823529411764705
F0.058823529411764705
tp97
sS'gray7'
p98
(F0.070588235294117646
F0.070588235294117646
F0.070588235294117646
tp99
sS'gray4'
p100
(F0.039215686274509803
F0.039215686274509803
F0.039215686274509803
tp101
sS'gray5'
p102
(F0.050980392156862744
F0.050980392156862744
F0.050980392156862744
tp103
sS'MistyRose'
p104
(F1
F0.89411764705882357
F0.88235294117647056
tp105
sS'gray98'
p106
(F0.98039215686274506
F0.98039215686274506
F0.98039215686274506
tp107
sS'DarkKhaki'
p108
(F0.74117647058823533
F0.71764705882352942
F0.41960784313725491
tp109
sS'gray99'
p110
(F0.9882352941176471
F0.9882352941176471
F0.9882352941176471
tp111
sS'grey11'
p112
(F0.10980392156862745
F0.10980392156862745
F0.10980392156862745
tp113
sS'coral4'
p114
(F0.54509803921568623
F0.24313725490196078
F0.18431372549019609
tp115
sS'grey12'
p116
(F0.12156862745098039
F0.12156862745098039
F0.12156862745098039
tp117
sS'grey64'
p118
(F0.63921568627450975
F0.63921568627450975
F0.63921568627450975
tp119
sS'PaleGreen1'
p120
(F0.60392156862745094
F1
F0.60392156862745094
tp121
sS'PaleGreen3'
p122
(F0.48627450980392156
F0.80392156862745101
F0.48627450980392156
tp123
sS'PaleGreen2'
p124
(F0.56470588235294117
F0.93333333333333335
F0.56470588235294117
tp125
sS'PaleGreen4'
p126
(F0.32941176470588235
F0.54509803921568623
F0.32941176470588235
tp127
sS'grey14'
p128
(F0.14117647058823529
F0.14117647058823529
F0.14117647058823529
tp129
sS'lavender'
p130
(F0.90196078431372551
F0.90196078431372551
F0.98039215686274506
tp131
sS'chartreuse3'
p132
(F0.40000000000000002
F0.80392156862745101
F0
tp133
sS'chartreuse2'
p134
(F0.46274509803921571
F0.93333333333333335
F0
tp135
sS'dark slate blue'
p136
(F0.28235294117647058
F0.23921568627450981
F0.54509803921568623
tp137
sS'grey16'
p138
(F0.16078431372549021
F0.16078431372549021
F0.16078431372549021
tp139
sS'chartreuse4'
p140
(F0.27058823529411763
F0.54509803921568623
F0
tp141
sS'RosyBrown'
p142
(F0.73725490196078436
F0.5607843137254902
F0.5607843137254902
tp143
sS'blue'
p144
(F0
F0
F1
tp145
sS'NavajoWhite'
p146
(F1
F0.87058823529411766
F0.67843137254901964
tp147
sS'LightSeaGreen'
p148
(F0.12549019607843137
F0.69803921568627447
F0.66666666666666663
tp149
sS'maroon3'
p150
(F0.80392156862745101
F0.16078431372549021
F0.56470588235294117
tp151
sS'dark khaki'
p152
(F0.74117647058823533
F0.71764705882352942
F0.41960784313725491
tp153
sS'maroon1'
p154
(F1
F0.20392156862745098
F0.70196078431372544
tp155
sS'gold3'
p156
(F0.80392156862745101
F0.67843137254901964
F0
tp157
sS'gold2'
p158
(F0.93333333333333335
F0.78823529411764703
F0
tp159
sS'gold1'
p160
(F1
F0.84313725490196079
F0
tp161
sS'BlueViolet'
p162
(F0.54117647058823526
F0.16862745098039217
F0.88627450980392153
tp163
sS'LightSlateGrey'
p164
(F0.46666666666666667
F0.53333333333333333
F0.59999999999999998
tp165
sS'dim gray'
p166
(F0.41176470588235292
F0.41176470588235292
F0.41176470588235292
tp167
sS'gray30'
p168
(F0.30196078431372547
F0.30196078431372547
F0.30196078431372547
tp169
sS'medium purple'
p170
(F0.57647058823529407
F0.4392156862745098
F0.85882352941176465
tp171
sS'green1'
p172
(F0
F1
F0
tp173
sS'SkyBlue'
p174
(F0.52941176470588236
F0.80784313725490198
F0.92156862745098034
tp175
sS'GhostWhite'
p176
(F0.97254901960784312
F0.97254901960784312
F1
tp177
sS'midnight blue'
p178
(F0.098039215686274508
F0.098039215686274508
F0.4392156862745098
tp179
sS'LavenderBlush'
p180
(F1
F0.94117647058823528
F0.96078431372549022
tp181
sS'SeaGreen'
p182
(F0.1803921568627451
F0.54509803921568623
F0.3411764705882353
tp183
sS'BlanchedAlmond'
p184
(F1
F0.92156862745098034
F0.80392156862745101
tp185
sS'gray60'
p186
(F0.59999999999999998
F0.59999999999999998
F0.59999999999999998
tp187
sS'DarkOliveGreen'
p188
(F0.33333333333333331
F0.41960784313725491
F0.18431372549019609
tp189
sS'firebrick2'
p190
(F0.93333333333333335
F0.17254901960784313
F0.17254901960784313
tp191
sS'firebrick1'
p192
(F1
F0.18823529411764706
F0.18823529411764706
tp193
sS'pale green'
p194
(F0.59607843137254901
F0.98431372549019602
F0.59607843137254901
tp195
sS'firebrick4'
p196
(F0.54509803921568623
F0.10196078431372549
F0.10196078431372549
tp197
sS'sienna'
p198
(F0.62745098039215685
F0.32156862745098042
F0.17647058823529413
tp199
sS'DarkOrchid4'
p200
(F0.40784313725490196
F0.13333333333333333
F0.54509803921568623
tp201
sS'dodger blue'
p202
(F0.11764705882352941
F0.56470588235294117
F1
tp203
sS'gray55'
p204
(F0.5490196078431373
F0.5490196078431373
F0.5490196078431373
tp205
sS'LightSteelBlue'
p206
(F0.69019607843137254
F0.7686274509803922
F0.87058823529411766
tp207
sS'DarkViolet'
p208
(F0.58039215686274515
F0
F0.82745098039215681
tp209
sS'blue4'
p210
(F0
F0
F0.54509803921568623
tp211
sS'CadetBlue4'
p212
(F0.32549019607843138
F0.52549019607843139
F0.54509803921568623
tp213
sS'peru'
p214
(F0.80392156862745101
F0.52156862745098043
F0.24705882352941178
tp215
sS'DarkMagenta'
p216
(F0.54509803921568623
F0
F0.54509803921568623
tp217
sS'LightBlue2'
p218
(F0.69803921568627447
F0.87450980392156863
F0.93333333333333335
tp219
sS'LightBlue3'
p220
(F0.60392156862745094
F0.75294117647058822
F0.80392156862745101
tp221
sS'red1'
p222
(F1
F0
F0
tp223
sS'LightBlue1'
p224
(F0.74901960784313726
F0.93725490196078431
F1
tp225
sS'LightBlue4'
p226
(F0.40784313725490196
F0.51372549019607838
F0.54509803921568623
tp227
sS'red4'
p228
(F0.54509803921568623
F0
F0
tp229
sS'navy blue'
p230
(F0
F0
F0.50196078431372548
tp231
sS'MediumSpringGreen'
p232
(F0
F0.98039215686274506
F0.60392156862745094
tp233
sS'chocolate'
p234
(F0.82352941176470584
F0.41176470588235292
F0.11764705882352941
tp235
sS'MediumTurquoise'
p236
(F0.28235294117647058
F0.81960784313725488
F0.80000000000000004
tp237
sS'DarkRed'
p238
(F0.54509803921568623
F0
F0
tp239
sS'HotPink3'
p240
(F0.80392156862745101
F0.37647058823529411
F0.56470588235294117
tp241
sS'HotPink2'
p242
(F0.93333333333333335
F0.41568627450980394
F0.65490196078431373
tp243
sS'HotPink1'
p244
(F1
F0.43137254901960786
F0.70588235294117652
tp245
sS'SlateGray'
p246
(F0.4392156862745098
F0.50196078431372548
F0.56470588235294117
tp247
sS'grey18'
p248
(F0.1803921568627451
F0.1803921568627451
F0.1803921568627451
tp249
sS'grey19'
p250
(F0.18823529411764706
F0.18823529411764706
F0.18823529411764706
tp251
sS'DodgerBlue3'
p252
(F0.094117647058823528
F0.45490196078431372
F0.80392156862745101
tp253
sS'FloralWhite'
p254
(F1
F0.98039215686274506
F0.94117647058823528
tp255
sS'moccasin'
p256
(F1
F0.89411764705882357
F0.70980392156862748
tp257
sS'grey10'
p258
(F0.10196078431372549
F0.10196078431372549
F0.10196078431372549
tp259
sS'chocolate1'
p260
(F1
F0.49803921568627452
F0.14117647058823529
tp261
sS'chocolate2'
p262
(F0.93333333333333335
F0.46274509803921571
F0.12941176470588237
tp263
sS'chocolate3'
p264
(F0.80392156862745101
F0.40000000000000002
F0.11372549019607843
tp265
sS'chocolate4'
p266
(F0.54509803921568623
F0.27058823529411763
F0.074509803921568626
tp267
sS'grey15'
p268
(F0.14901960784313725
F0.14901960784313725
F0.14901960784313725
tp269
sS'dark orchid'
p270
(F0.59999999999999998
F0.19607843137254902
F0.80000000000000004
tp271
sS'grey17'
p272
(F0.16862745098039217
F0.16862745098039217
F0.16862745098039217
tp273
sS'gray69'
p274
(F0.69019607843137254
F0.69019607843137254
F0.69019607843137254
tp275
sS'gray68'
p276
(F0.67843137254901964
F0.67843137254901964
F0.67843137254901964
tp277
sS'gray65'
p278
(F0.65098039215686276
F0.65098039215686276
F0.65098039215686276
tp279
sS'gray64'
p280
(F0.63921568627450975
F0.63921568627450975
F0.63921568627450975
tp281
sS'gray67'
p282
(F0.6705882352941176
F0.6705882352941176
F0.6705882352941176
tp283
sS'gray66'
p284
(F0.6588235294117647
F0.6588235294117647
F0.6588235294117647
tp285
sS'gray61'
p286
(F0.61176470588235299
F0.61176470588235299
F0.61176470588235299
tp287
sS'coral'
p288
(F1
F0.49803921568627452
F0.31372549019607843
tp289
sS'gray63'
p290
(F0.63137254901960782
F0.63137254901960782
F0.63137254901960782
tp291
sS'gray62'
p292
(F0.61960784313725492
F0.61960784313725492
F0.61960784313725492
tp293
sS'LightGoldenrod'
p294
(F0.93333333333333335
F0.8666666666666667
F0.50980392156862742
tp295
sS'seashell2'
p296
(F0.93333333333333335
F0.89803921568627454
F0.87058823529411766
tp297
sS'seashell3'
p298
(F0.80392156862745101
F0.77254901960784317
F0.74901960784313726
tp299
sS'magenta'
p300
(F1
F0
F1
tp301
sS'seashell1'
p302
(F1
F0.96078431372549022
F0.93333333333333335
tp303
sS'tan'
p304
(F0.82352941176470584
F0.70588235294117652
F0.5490196078431373
tp305
sS'seashell4'
p306
(F0.54509803921568623
F0.52549019607843139
F0.50980392156862742
tp307
sS'DarkSeaGreen2'
p308
(F0.70588235294117652
F0.93333333333333335
F0.70588235294117652
tp309
sS'pink'
p310
(F1
F0.75294117647058822
F0.79607843137254897
tp311
sS'medium aquamarine'
p312
(F0.40000000000000002
F0.80392156862745101
F0.66666666666666663
tp313
sS'LightSlateBlue'
p314
(F0.51764705882352946
F0.4392156862745098
F1
tp315
sS'chartreuse1'
p316
(F0.49803921568627452
F1
F0
tp317
sS'dark turquoise'
p318
(F0
F0.80784313725490198
F0.81960784313725488
tp319
sS'papaya whip'
p320
(F1
F0.93725490196078431
F0.83529411764705885
tp321
sS'SteelBlue1'
p322
(F0.38823529411764707
F0.72156862745098038
F1
tp323
sS'SteelBlue3'
p324
(F0.30980392156862746
F0.58039215686274515
F0.80392156862745101
tp325
sS'SteelBlue2'
p326
(F0.36078431372549019
F0.67450980392156867
F0.93333333333333335
tp327
sS'SteelBlue4'
p328
(F0.21176470588235294
F0.39215686274509803
F0.54509803921568623
tp329
sS'grey89'
p330
(F0.8901960784313725
F0.8901960784313725
F0.8901960784313725
tp331
sS'grey88'
p332
(F0.8784313725490196
F0.8784313725490196
F0.8784313725490196
tp333
sS'gray56'
p334
(F0.5607843137254902
F0.5607843137254902
F0.5607843137254902
tp335
sS'grey86'
p336
(F0.85882352941176465
F0.85882352941176465
F0.85882352941176465
tp337
sS'grey85'
p338
(F0.85098039215686272
F0.85098039215686272
F0.85098039215686272
tp339
sS'grey84'
p340
(F0.83921568627450982
F0.83921568627450982
F0.83921568627450982
tp341
sS'grey83'
p342
(F0.83137254901960789
F0.83137254901960789
F0.83137254901960789
tp343
sS'grey82'
p344
(F0.81960784313725488
F0.81960784313725488
F0.81960784313725488
tp345
sS'grey81'
p346
(F0.81176470588235294
F0.81176470588235294
F0.81176470588235294
tp347
sS'grey80'
p348
(F0.80000000000000004
F0.80000000000000004
F0.80000000000000004
tp349
sS'tomato'
p350
(F1
F0.38823529411764707
F0.27843137254901962
tp351
sS'white smoke'
p352
(F0.96078431372549022
F0.96078431372549022
F0.96078431372549022
tp353
sS'khaki1'
p354
(F1
F0.96470588235294119
F0.5607843137254902
tp355
sS'khaki2'
p356
(F0.93333333333333335
F0.90196078431372551
F0.52156862745098043
tp357
sS'khaki3'
p358
(F0.80392156862745101
F0.77647058823529413
F0.45098039215686275
tp359
sS'salmon1'
p360
(F1
F0.5490196078431373
F0.41176470588235292
tp361
sS'salmon3'
p362
(F0.80392156862745101
F0.4392156862745098
F0.32941176470588235
tp363
sS'salmon2'
p364
(F0.93333333333333335
F0.50980392156862742
F0.3843137254901961
tp365
sS'salmon4'
p366
(F0.54509803921568623
F0.29803921568627451
F0.22352941176470589
tp367
sS'LightPink'
p368
(F1
F0.71372549019607845
F0.75686274509803919
tp369
sS'gray9'
p370
(F0.090196078431372548
F0.090196078431372548
F0.090196078431372548
tp371
sS'green'
p372
(F0
F1
F0
tp373
sS'brown2'
p374
(F0.93333333333333335
F0.23137254901960785
F0.23137254901960785
tp375
sS'brown3'
p376
(F0.80392156862745101
F0.20000000000000001
F0.20000000000000001
tp377
sS'brown1'
p378
(F1
F0.25098039215686274
F0.25098039215686274
tp379
sS'brown4'
p380
(F0.54509803921568623
F0.13725490196078433
F0.13725490196078433
tp381
sS'cadet blue'
p382
(F0.37254901960784315
F0.61960784313725492
F0.62745098039215685
tp383
sS'orange4'
p384
(F0.54509803921568623
F0.35294117647058826
F0
tp385
sS'old lace'
p386
(F0.99215686274509807
F0.96078431372549022
F0.90196078431372551
tp387
sS'orange3'
p388
(F0.80392156862745101
F0.52156862745098043
F0
tp389
sS'orange2'
p390
(F0.93333333333333335
F0.60392156862745094
F0
tp391
sS'gray3'
p392
(F0.031372549019607843
F0.031372549019607843
F0.031372549019607843
tp393
sS'medium spring green'
p394
(F0
F0.98039215686274506
F0.60392156862745094
tp395
sS'yellow4'
p396
(F0.54509803921568623
F0.54509803921568623
F0
tp397
sS'yellow3'
p398
(F0.80392156862745101
F0.80392156862745101
F0
tp399
sS'yellow2'
p400
(F0.93333333333333335
F0.93333333333333335
F0
tp401
sS'yellow1'
p402
(F1
F1
F0
tp403
sS'PapayaWhip'
p404
(F1
F0.93725490196078431
F0.83529411764705885
tp405
sS'light sky blue'
p406
(F0.52941176470588236
F0.80784313725490198
F0.98039215686274506
tp407
sS'MediumOrchid3'
p408
(F0.70588235294117652
F0.32156862745098042
F0.80392156862745101
tp409
sS'orange'
p410
(F1
F0.6470588235294118
F0
tp411
sS'MediumOrchid2'
p412
(F0.81960784313725488
F0.37254901960784315
F0.93333333333333335
tp413
sS'OliveDrab1'
p414
(F0.75294117647058822
F1
F0.24313725490196078
tp415
sS'OliveDrab2'
p416
(F0.70196078431372544
F0.93333333333333335
F0.22745098039215686
tp417
sS'OliveDrab3'
p418
(F0.60392156862745094
F0.80392156862745101
F0.19607843137254902
tp419
sS'dark magenta'
p420
(F0.54509803921568623
F0
F0.54509803921568623
tp421
sS'SkyBlue4'
p422
(F0.29019607843137257
F0.4392156862745098
F0.54509803921568623
tp423
sS'SkyBlue1'
p424
(F0.52941176470588236
F0.80784313725490198
F1
tp425
sS'SkyBlue3'
p426
(F0.42352941176470588
F0.65098039215686276
F0.80392156862745101
tp427
sS'SkyBlue2'
p428
(F0.49411764705882355
F0.75294117647058822
F0.93333333333333335
tp429
sS'light slate gray'
p430
(F0.46666666666666667
F0.53333333333333333
F0.59999999999999998
tp431
sS'grey87'
p432
(F0.87058823529411766
F0.87058823529411766
F0.87058823529411766
tp433
sS'grey58'
p434
(F0.58039215686274515
F0.58039215686274515
F0.58039215686274515
tp435
sS'grey59'
p436
(F0.58823529411764708
F0.58823529411764708
F0.58823529411764708
tp437
sS'dark olive green'
p438
(F0.33333333333333331
F0.41960784313725491
F0.18431372549019609
tp439
sS'grey55'
p440
(F0.5490196078431373
F0.5490196078431373
F0.5490196078431373
tp441
sS'grey56'
p442
(F0.5607843137254902
F0.5607843137254902
F0.5607843137254902
tp443
sS'green yellow'
p444
(F0.67843137254901964
F1
F0.18431372549019609
tp445
sS'grey50'
p446
(F0.49803921568627452
F0.49803921568627452
F0.49803921568627452
tp447
sS'orange red'
p448
(F1
F0.27058823529411763
F0
tp449
sS'grey52'
p450
(F0.52156862745098043
F0.52156862745098043
F0.52156862745098043
tp451
sS'grey53'
p452
(F0.52941176470588236
F0.52941176470588236
F0.52941176470588236
tp453
sS'cyan2'
p454
(F0
F0.93333333333333335
F0.93333333333333335
tp455
sS'cyan3'
p456
(F0
F0.80392156862745101
F0.80392156862745101
tp457
sS'gray23'
p458
(F0.23137254901960785
F0.23137254901960785
F0.23137254901960785
tp459
sS'goldenrod'
p460
(F0.85490196078431369
F0.6470588235294118
F0.12549019607843137
tp461
sS'gray25'
p462
(F0.25098039215686274
F0.25098039215686274
F0.25098039215686274
tp463
sS'CornflowerBlue'
p464
(F0.39215686274509803
F0.58431372549019611
F0.92941176470588238
tp465
sS'cyan4'
p466
(F0
F0.54509803921568623
F0.54509803921568623
tp467
sS'gray26'
p468
(F0.25882352941176473
F0.25882352941176473
F0.25882352941176473
tp469
sS'gray29'
p470
(F0.29019607843137257
F0.29019607843137257
F0.29019607843137257
tp471
sS'LimeGreen'
p472
(F0.19607843137254902
F0.80392156862745101
F0.19607843137254902
tp473
sS'dark violet'
p474
(F0.58039215686274515
F0
F0.82745098039215681
tp475
sS'DarkBlue'
p476
(F0
F0
F0.54509803921568623
tp477
sS'MediumSlateBlue'
p478
(F0.4823529411764706
F0.40784313725490196
F0.93333333333333335
tp479
sS'dark orange'
p480
(F1
F0.5490196078431373
F0
tp481
sS'steel blue'
p482
(F0.27450980392156865
F0.50980392156862742
F0.70588235294117652
tp483
sS'navy'
p484
(F0
F0
F0.50196078431372548
tp485
sS'grey67'
p486
(F0.6705882352941176
F0.6705882352941176
F0.6705882352941176
tp487
sS'SeaGreen3'
p488
(F0.2627450980392157
F0.80392156862745101
F0.50196078431372548
tp489
sS'firebrick3'
p490
(F0.80392156862745101
F0.14901960784313725
F0.14901960784313725
tp491
sS'gray94'
p492
(F0.94117647058823528
F0.94117647058823528
F0.94117647058823528
tp493
sS'gray95'
p494
(F0.94901960784313721
F0.94901960784313721
F0.94901960784313721
tp495
sS'gray96'
p496
(F0.96078431372549022
F0.96078431372549022
F0.96078431372549022
tp497
sS'gray97'
p498
(F0.96862745098039216
F0.96862745098039216
F0.96862745098039216
tp499
sS'gray90'
p500
(F0.89803921568627454
F0.89803921568627454
F0.89803921568627454
tp501
sS'gray91'
p502
(F0.90980392156862744
F0.90980392156862744
F0.90980392156862744
tp503
sS'gray92'
p504
(F0.92156862745098034
F0.92156862745098034
F0.92156862745098034
tp505
sS'gray93'
p506
(F0.92941176470588238
F0.92941176470588238
F0.92941176470588238
tp507
sS'MediumPurple'
p508
(F0.57647058823529407
F0.4392156862745098
F0.85882352941176465
tp509
sS'MidnightBlue'
p510
(F0.098039215686274508
F0.098039215686274508
F0.4392156862745098
tp511
sS'cornsilk'
p512
(F1
F0.97254901960784312
F0.86274509803921573
tp513
sS'red'
p514
(F1
F0
F0
tp515
sS'dark gray'
p516
(F0.66274509803921566
F0.66274509803921566
F0.66274509803921566
tp517
sS'royal blue'
p518
(F0.25490196078431371
F0.41176470588235292
F0.88235294117647056
tp519
sS'grey69'
p520
(F0.69019607843137254
F0.69019607843137254
F0.69019607843137254
tp521
sS'blue1'
p522
(F0
F0
F1
tp523
sS'sky blue'
p524
(F0.52941176470588236
F0.80784313725490198
F0.92156862745098034
tp525
sS'blue3'
p526
(F0
F0
F0.80392156862745101
tp527
sS'blue2'
p528
(F0
F0
F0.93333333333333335
tp529
sS'gainsboro'
p530
(F0.86274509803921573
F0.86274509803921573
F0.86274509803921573
tp531
sS'DarkOrchid2'
p532
(F0.69803921568627447
F0.22745098039215686
F0.93333333333333335
tp533
sS'DarkOrchid3'
p534
(F0.60392156862745094
F0.19607843137254902
F0.80392156862745101
tp535
sS'lemon chiffon'
p536
(F1
F0.98039215686274506
F0.80392156862745101
tp537
sS'cornflower blue'
p538
(F0.39215686274509803
F0.58431372549019611
F0.92941176470588238
tp539
sS'plum4'
p540
(F0.54509803921568623
F0.40000000000000002
F0.54509803921568623
tp541
sS'alice blue'
p542
(F0.94117647058823528
F0.97254901960784312
F1
tp543
sS'rosy brown'
p544
(F0.73725490196078436
F0.5607843137254902
F0.5607843137254902
tp545
sS'grey70'
p546
(F0.70196078431372544
F0.70196078431372544
F0.70196078431372544
tp547
sS'DarkSeaGreen'
p548
(F0.5607843137254902
F0.73725490196078436
F0.5607843137254902
tp549
sS'grey71'
p550
(F0.70980392156862748
F0.70980392156862748
F0.70980392156862748
tp551
sS'slate grey'
p552
(F0.4392156862745098
F0.50196078431372548
F0.56470588235294117
tp553
sS'grey77'
p554
(F0.7686274509803922
F0.7686274509803922
F0.7686274509803922
tp555
sS'tomato4'
p556
(F0.54509803921568623
F0.21176470588235294
F0.14901960784313725
tp557
sS'tomato1'
p558
(F1
F0.38823529411764707
F0.27843137254901962
tp559
sS'grey74'
p560
(F0.74117647058823533
F0.74117647058823533
F0.74117647058823533
tp561
sS'tomato3'
p562
(F0.80392156862745101
F0.30980392156862746
F0.22352941176470589
tp563
sS'tomato2'
p564
(F0.93333333333333335
F0.36078431372549019
F0.25882352941176473
tp565
sS'DarkSlateGray1'
p566
(F0.59215686274509804
F1
F1
tp567
sS'DarkSlateGray2'
p568
(F0.55294117647058827
F0.93333333333333335
F0.93333333333333335
tp569
sS'DarkSlateGray3'
p570
(F0.47450980392156861
F0.80392156862745101
F0.80392156862745101
tp571
sS'DarkSlateGray4'
p572
(F0.32156862745098042
F0.54509803921568623
F0.54509803921568623
tp573
sS'SteelBlue'
p574
(F0.27450980392156865
F0.50980392156862742
F0.70588235294117652
tp575
sS'deep pink'
p576
(F1
F0.078431372549019607
F0.57647058823529407
tp577
sS'gray82'
p578
(F0.81960784313725488
F0.81960784313725488
F0.81960784313725488
tp579
sS'pink3'
p580
(F0.80392156862745101
F0.56862745098039214
F0.61960784313725492
tp581
sS'grey79'
p582
(F0.78823529411764703
F0.78823529411764703
F0.78823529411764703
tp583
sS'MediumVioletRed'
p584
(F0.7803921568627451
F0.082352941176470587
F0.52156862745098043
tp585
sS'burlywood'
p586
(F0.87058823529411766
F0.72156862745098038
F0.52941176470588236
tp587
sS'light slate grey'
p588
(F0.46666666666666667
F0.53333333333333333
F0.59999999999999998
tp589
sS'dark blue'
p590
(F0
F0
F0.54509803921568623
tp591
sS'white'
p592
(F1
F1
F1
tp593
sS'khaki4'
p594
(F0.54509803921568623
F0.52549019607843139
F0.30588235294117649
tp595
sS'blanched almond'
p596
(F1
F0.92156862745098034
F0.80392156862745101
tp597
sS'DodgerBlue'
p598
(F0.11764705882352941
F0.56470588235294117
F1
tp599
sS'RoyalBlue4'
p600
(F0.15294117647058825
F0.25098039215686274
F0.54509803921568623
tp601
sS'RoyalBlue1'
p602
(F0.28235294117647058
F0.46274509803921571
F1
tp603
sS'RoyalBlue3'
p604
(F0.22745098039215686
F0.37254901960784315
F0.80392156862745101
tp605
sS'RoyalBlue2'
p606
(F0.2627450980392157
F0.43137254901960786
F0.93333333333333335
tp607
sS'MistyRose1'
p608
(F1
F0.89411764705882357
F0.88235294117647056
tp609
sS'MistyRose3'
p610
(F0.80392156862745101
F0.71764705882352942
F0.70980392156862748
tp611
sS'MistyRose2'
p612
(F0.93333333333333335
F0.83529411764705885
F0.82352941176470584
tp613
sS'MistyRose4'
p614
(F0.54509803921568623
F0.49019607843137253
F0.4823529411764706
tp615
sS'LightGray'
p616
(F0.82745098039215681
F0.82745098039215681
F0.82745098039215681
tp617
sS'LightYellow'
p618
(F1
F1
F0.8784313725490196
tp619
sS'DarkOrange'
p620
(F1
F0.5490196078431373
F0
tp621
sS'medium blue'
p622
(F0
F0
F0.80392156862745101
tp623
sS'forest green'
p624
(F0.13333333333333333
F0.54509803921568623
F0.13333333333333333
tp625
sS'gray73'
p626
(F0.72941176470588232
F0.72941176470588232
F0.72941176470588232
tp627
sS'grey41'
p628
(F0.41176470588235292
F0.41176470588235292
F0.41176470588235292
tp629
sS'gray70'
p630
(F0.70196078431372544
F0.70196078431372544
F0.70196078431372544
tp631
sS'light green'
p632
(F0.56470588235294117
F0.93333333333333335
F0.56470588235294117
tp633
sS'DarkGray'
p634
(F0.66274509803921566
F0.66274509803921566
F0.66274509803921566
tp635
sS'medium turquoise'
p636
(F0.28235294117647058
F0.81960784313725488
F0.80000000000000004
tp637
sS'turquoise3'
p638
(F0
F0.77254901960784317
F0.80392156862745101
tp639
sS'turquoise2'
p640
(F0
F0.89803921568627454
F0.93333333333333335
tp641
sS'turquoise1'
p642
(F0
F0.96078431372549022
F1
tp643
sS'burlywood2'
p644
(F0.93333333333333335
F0.77254901960784317
F0.56862745098039214
tp645
sS'saddle brown'
p646
(F0.54509803921568623
F0.27058823529411763
F0.074509803921568626
tp647
sS'turquoise4'
p648
(F0
F0.52549019607843139
F0.54509803921568623
tp649
sS'lawn green'
p650
(F0.48627450980392156
F0.9882352941176471
F0
tp651
sS'linen'
p652
(F0.98039215686274506
F0.94117647058823528
F0.90196078431372551
tp653
sS'grey47'
p654
(F0.47058823529411764
F0.47058823529411764
F0.47058823529411764
tp655
sS'snow'
p656
(F1
F0.98039215686274506
F0.98039215686274506
tp657
sS'grey46'
p658
(F0.45882352941176469
F0.45882352941176469
F0.45882352941176469
tp659
sS'gray58'
p660
(F0.58039215686274515
F0.58039215686274515
F0.58039215686274515
tp661
sS'gray59'
p662
(F0.58823529411764708
F0.58823529411764708
F0.58823529411764708
tp663
sS'IndianRed4'
p664
(F0.54509803921568623
F0.22745098039215686
F0.22745098039215686
tp665
sS'purple4'
p666
(F0.33333333333333331
F0.10196078431372549
F0.54509803921568623
tp667
sS'gray52'
p668
(F0.52156862745098043
F0.52156862745098043
F0.52156862745098043
tp669
sS'grey44'
p670
(F0.4392156862745098
F0.4392156862745098
F0.4392156862745098
tp671
sS'purple1'
p672
(F0.60784313725490191
F0.18823529411764706
F1
tp673
sS'LightSalmon'
p674
(F1
F0.62745098039215685
F0.47843137254901963
tp675
sS'IndianRed2'
p676
(F0.93333333333333335
F0.38823529411764707
F0.38823529411764707
tp677
sS'IndianRed3'
p678
(F0.80392156862745101
F0.33333333333333331
F0.33333333333333331
tp679
sS'DarkOrchid1'
p680
(F0.74901960784313726
F0.24313725490196078
F1
tp681
sS'thistle3'
p682
(F0.80392156862745101
F0.70980392156862748
F0.80392156862745101
tp683
sS'SpringGreen1'
p684
(F0
F1
F0.49803921568627452
tp685
sS'SpringGreen2'
p686
(F0
F0.93333333333333335
F0.46274509803921571
tp687
sS'SpringGreen3'
p688
(F0
F0.80392156862745101
F0.40000000000000002
tp689
sS'salmon'
p690
(F0.98039215686274506
F0.50196078431372548
F0.44705882352941179
tp691
sS'thistle4'
p692
(F0.54509803921568623
F0.4823529411764706
F0.54509803921568623
tp693
sS'LightPink2'
p694
(F0.93333333333333335
F0.63529411764705879
F0.67843137254901964
tp695
sS'LightPink3'
p696
(F0.80392156862745101
F0.5490196078431373
F0.58431372549019611
tp697
sS'LightPink1'
p698
(F1
F0.68235294117647061
F0.72549019607843135
tp699
sS'antique white'
p700
(F0.98039215686274506
F0.92156862745098034
F0.84313725490196079
tp701
sS'LightPink4'
p702
(F0.54509803921568623
F0.37254901960784315
F0.396078431372549
tp703
sS'MediumPurple1'
p704
(F0.6705882352941176
F0.50980392156862742
F1
tp705
sS'MediumPurple2'
p706
(F0.62352941176470589
F0.47450980392156861
F0.93333333333333335
tp707
sS'MediumPurple3'
p708
(F0.53725490196078429
F0.40784313725490196
F0.80392156862745101
tp709
sS'MediumPurple4'
p710
(F0.36470588235294116
F0.27843137254901962
F0.54509803921568623
tp711
sS'DimGray'
p712
(F0.41176470588235292
F0.41176470588235292
F0.41176470588235292
tp713
sS'gray14'
p714
(F0.14117647058823529
F0.14117647058823529
F0.14117647058823529
tp715
sS'grey100'
p716
(F1
F1
F1
tp717
sS'OrangeRed3'
p718
(F0.80392156862745101
F0.21568627450980393
F0
tp719
sS'OrangeRed2'
p720
(F0.93333333333333335
F0.25098039215686274
F0
tp721
sS'OrangeRed1'
p722
(F1
F0.27058823529411763
F0
tp723
sS'maroon4'
p724
(F0.54509803921568623
F0.10980392156862745
F0.3843137254901961
tp725
sS'gold'
p726
(F1
F0.84313725490196079
F0
tp727
sS'OrangeRed4'
p728
(F0.54509803921568623
F0.14509803921568629
F0
tp729
sS'NavajoWhite4'
p730
(F0.54509803921568623
F0.47450980392156861
F0.36862745098039218
tp731
sS'NavajoWhite1'
p732
(F1
F0.87058823529411766
F0.67843137254901964
tp733
sS'LawnGreen'
p734
(F0.48627450980392156
F0.9882352941176471
F0
tp735
sS'NavajoWhite3'
p736
(F0.80392156862745101
F0.70196078431372544
F0.54509803921568623
tp737
sS'LightGoldenrod4'
p738
(F0.54509803921568623
F0.50588235294117645
F0.29803921568627451
tp739
sS'LightGoldenrod1'
p740
(F1
F0.92549019607843142
F0.54509803921568623
tp741
sS'LightGoldenrod3'
p742
(F0.80392156862745101
F0.74509803921568629
F0.4392156862745098
tp743
sS'LightGoldenrod2'
p744
(F0.93333333333333335
F0.86274509803921573
F0.50980392156862742
tp745
sS'gray21'
p746
(F0.21176470588235294
F0.21176470588235294
F0.21176470588235294
tp747
sS'gray13'
p748
(F0.12941176470588237
F0.12941176470588237
F0.12941176470588237
tp749
sS'azure4'
p750
(F0.51372549019607838
F0.54509803921568623
F0.54509803921568623
tp751
sS'PaleGreen'
p752
(F0.59607843137254901
F0.98431372549019602
F0.59607843137254901
tp753
sS'green4'
p754
(F0
F0.54509803921568623
F0
tp755
sS'violet red'
p756
(F0.81568627450980391
F0.12549019607843137
F0.56470588235294117
tp757
sS'DarkGreen'
p758
(F0
F0.39215686274509803
F0
tp759
sS'green3'
p760
(F0
F0.80392156862745101
F0
tp761
sS'green2'
p762
(F0
F0.93333333333333335
F0
tp763
sS'MediumOrchid'
p764
(F0.72941176470588232
F0.33333333333333331
F0.82745098039215681
tp765
sS'navajo white'
p766
(F1
F0.87058823529411766
F0.67843137254901964
tp767
sS'light steel blue'
p768
(F0.69019607843137254
F0.7686274509803922
F0.87058823529411766
tp769
sS'black'
p770
(F0
F0
F0
tp771
sS'indian red'
p772
(F0.80392156862745101
F0.36078431372549019
F0.36078431372549019
tp773
sS'gray20'
p774
(F0.20000000000000001
F0.20000000000000001
F0.20000000000000001
tp775
sS'orchid4'
p776
(F0.54509803921568623
F0.27843137254901962
F0.53725490196078429
tp777
sS'DodgerBlue1'
p778
(F0.11764705882352941
F0.56470588235294117
F1
tp779
sS'DodgerBlue2'
p780
(F0.10980392156862745
F0.52549019607843139
F0.93333333333333335
tp781
sS'PeachPuff'
p782
(F1
F0.85490196078431369
F0.72549019607843135
tp783
sS'DodgerBlue4'
p784
(F0.062745098039215685
F0.30588235294117649
F0.54509803921568623
tp785
sS'orchid1'
p786
(F1
F0.51372549019607838
F0.98039215686274506
tp787
sS'orchid2'
p788
(F0.93333333333333335
F0.47843137254901963
F0.9137254901960784
tp789
sS'orchid3'
p790
(F0.80392156862745101
F0.41176470588235292
F0.78823529411764703
tp791
sS'DarkSeaGreen4'
p792
(F0.41176470588235292
F0.54509803921568623
F0.41176470588235292
tp793
sS'DarkSeaGreen3'
p794
(F0.60784313725490191
F0.80392156862745101
F0.60784313725490191
tp795
sS'yellow green'
p796
(F0.60392156862745094
F0.80392156862745101
F0.19607843137254902
tp797
sS'DarkSeaGreen1'
p798
(F0.75686274509803919
F1
F0.75686274509803919
tp799
sS'orange1'
p800
(F1
F0.6470588235294118
F0
tp801
sS'gold4'
p802
(F0.54509803921568623
F0.45882352941176469
F0
tp803
sS'grey72'
p804
(F0.72156862745098038
F0.72156862745098038
F0.72156862745098038
tp805
sS'bisque4'
p806
(F0.54509803921568623
F0.49019607843137253
F0.41960784313725491
tp807
sS'MediumOrchid4'
p808
(F0.47843137254901963
F0.21568627450980393
F0.54509803921568623
tp809
sS'MintCream'
p810
(F0.96078431372549022
F1
F0.98039215686274506
tp811
sS'MediumOrchid1'
p812
(F0.8784313725490196
F0.40000000000000002
F1
tp813
sS'bisque1'
p814
(F1
F0.89411764705882357
F0.7686274509803922
tp815
sS'bisque2'
p816
(F0.93333333333333335
F0.83529411764705885
F0.71764705882352942
tp817
sS'bisque3'
p818
(F0.80392156862745101
F0.71764705882352942
F0.61960784313725492
tp819
sS'gray'
p820
(F0.74509803921568629
F0.74509803921568629
F0.74509803921568629
tp821
sS'DeepSkyBlue'
p822
(F0
F0.74901960784313726
F1
tp823
sS'LightGrey'
p824
(F0.82745098039215681
F0.82745098039215681
F0.82745098039215681
tp825
sS'grey78'
p826
(F0.7803921568627451
F0.7803921568627451
F0.7803921568627451
tp827
sS'gray22'
p828
(F0.2196078431372549
F0.2196078431372549
F0.2196078431372549
tp829
sS'RosyBrown3'
p830
(F0.80392156862745101
F0.60784313725490191
F0.60784313725490191
tp831
sS'plum3'
p832
(F0.80392156862745101
F0.58823529411764708
F0.80392156862745101
tp833
sS'plum2'
p834
(F0.93333333333333335
F0.68235294117647061
F0.93333333333333335
tp835
sS'plum1'
p836
(F1
F0.73333333333333328
F1
tp837
sS'DarkSlateGrey'
p838
(F0.18431372549019609
F0.30980392156862746
F0.30980392156862746
tp839
sS'DarkOrchid'
p840
(F0.59999999999999998
F0.19607843137254902
F0.80000000000000004
tp841
sS'OliveDrab'
p842
(F0.41960784313725491
F0.55686274509803924
F0.13725490196078433
tp843
sS'gray83'
p844
(F0.83137254901960789
F0.83137254901960789
F0.83137254901960789
tp845
sS'grey'
p846
(F0.74509803921568629
F0.74509803921568629
F0.74509803921568629
tp847
sS'grey49'
p848
(F0.49019607843137253
F0.49019607843137253
F0.49019607843137253
tp849
sS'grey48'
p850
(F0.47843137254901963
F0.47843137254901963
F0.47843137254901963
tp851
sS'thistle'
p852
(F0.84705882352941175
F0.74901960784313726
F0.84705882352941175
tp853
sS'violet'
p854
(F0.93333333333333335
F0.50980392156862742
F0.93333333333333335
tp855
sS'grey43'
p856
(F0.43137254901960786
F0.43137254901960786
F0.43137254901960786
tp857
sS'grey42'
p858
(F0.41960784313725491
F0.41960784313725491
F0.41960784313725491
tp859
sS'LightSalmon4'
p860
(F0.54509803921568623
F0.3411764705882353
F0.25882352941176473
tp861
sS'grey40'
p862
(F0.40000000000000002
F0.40000000000000002
F0.40000000000000002
tp863
sS'LightSalmon2'
p864
(F0.93333333333333335
F0.58431372549019611
F0.44705882352941179
tp865
sS'LightSalmon3'
p866
(F0.80392156862745101
F0.50588235294117645
F0.3843137254901961
tp867
sS'grey45'
p868
(F0.45098039215686275
F0.45098039215686275
F0.45098039215686275
tp869
sS'LightSalmon1'
p870
(F1
F0.62745098039215685
F0.47843137254901963
tp871
sS'honeydew'
p872
(F0.94117647058823528
F1
F0.94117647058823528
tp873
sS'gray18'
p874
(F0.1803921568627451
F0.1803921568627451
F0.1803921568627451
tp875
sS'gray19'
p876
(F0.18823529411764706
F0.18823529411764706
F0.18823529411764706
tp877
sS'LightCyan'
p878
(F0.8784313725490196
F1
F1
tp879
sS'gray15'
p880
(F0.14901960784313725
F0.14901960784313725
F0.14901960784313725
tp881
sS'gray16'
p882
(F0.16078431372549021
F0.16078431372549021
F0.16078431372549021
tp883
sS'gray17'
p884
(F0.16862745098039217
F0.16862745098039217
F0.16862745098039217
tp885
sS'gray10'
p886
(F0.10196078431372549
F0.10196078431372549
F0.10196078431372549
tp887
sS'gray11'
p888
(F0.10980392156862745
F0.10980392156862745
F0.10980392156862745
tp889
sS'gray12'
p890
(F0.12156862745098039
F0.12156862745098039
F0.12156862745098039
tp891
sS'pale violet red'
p892
(F0.85882352941176465
F0.4392156862745098
F0.57647058823529407
tp893
sS'thistle2'
p894
(F0.93333333333333335
F0.82352941176470584
F0.93333333333333335
tp895
sS'grey93'
p896
(F0.92941176470588238
F0.92941176470588238
F0.92941176470588238
tp897
sS'light slate blue'
p898
(F0.51764705882352946
F0.4392156862745098
F1
tp899
sS'PaleGoldenrod'
p900
(F0.93333333333333335
F0.90980392156862744
F0.66666666666666663
tp901
sS'DarkSlateGray'
p902
(F0.18431372549019609
F0.30980392156862746
F0.30980392156862746
tp903
sS'AntiqueWhite3'
p904
(F0.80392156862745101
F0.75294117647058822
F0.69019607843137254
tp905
sS'AntiqueWhite2'
p906
(F0.93333333333333335
F0.87450980392156863
F0.80000000000000004
tp907
sS'AntiqueWhite1'
p908
(F1
F0.93725490196078431
F0.85882352941176465
tp909
sS'gray27'
p910
(F0.27058823529411763
F0.27058823529411763
F0.27058823529411763
tp911
sS'SlateBlue'
p912
(F0.41568627450980394
F0.35294117647058826
F0.80392156862745101
tp913
sS'AntiqueWhite4'
p914
(F0.54509803921568623
F0.51372549019607838
F0.47058823529411764
tp915
sS'RosyBrown4'
p916
(F0.54509803921568623
F0.41176470588235292
F0.41176470588235292
tp917
sS'DimGrey'
p918
(F0.41176470588235292
F0.41176470588235292
F0.41176470588235292
tp919
sS'VioletRed'
p920
(F0.81568627450980391
F0.12549019607843137
F0.56470588235294117
tp921
sS'WhiteSmoke'
p922
(F0.96078431372549022
F0.96078431372549022
F0.96078431372549022
tp923
sS'grey38'
p924
(F0.38039215686274508
F0.38039215686274508
F0.38039215686274508
tp925
sS'grey39'
p926
(F0.38823529411764707
F0.38823529411764707
F0.38823529411764707
tp927
sS'grey36'
p928
(F0.36078431372549019
F0.36078431372549019
F0.36078431372549019
tp929
sS'grey37'
p930
(F0.36862745098039218
F0.36862745098039218
F0.36862745098039218
tp931
sS'grey34'
p932
(F0.3411764705882353
F0.3411764705882353
F0.3411764705882353
tp933
sS'hot pink'
p934
(F1
F0.41176470588235292
F0.70588235294117652
tp935
sS'grey32'
p936
(F0.32156862745098042
F0.32156862745098042
F0.32156862745098042
tp937
sS'grey33'
p938
(F0.32941176470588235
F0.32941176470588235
F0.32941176470588235
tp939
sS'grey30'
p940
(F0.30196078431372547
F0.30196078431372547
F0.30196078431372547
tp941
sS'grey31'
p942
(F0.30980392156862746
F0.30980392156862746
F0.30980392156862746
tp943
sS'NavyBlue'
p944
(F0
F0
F0.50196078431372548
tp945
sS'sienna4'
p946
(F0.54509803921568623
F0.27843137254901962
F0.14901960784313725
tp947
sS'gray81'
p948
(F0.81176470588235294
F0.81176470588235294
F0.81176470588235294
tp949
sS'gray80'
p950
(F0.80000000000000004
F0.80000000000000004
F0.80000000000000004
tp951
sS'sienna1'
p952
(F1
F0.50980392156862742
F0.27843137254901962
tp953
sS'gray86'
p954
(F0.85882352941176465
F0.85882352941176465
F0.85882352941176465
tp955
sS'sienna3'
p956
(F0.80392156862745101
F0.40784313725490196
F0.22352941176470589
tp957
sS'sienna2'
p958
(F0.93333333333333335
F0.47450980392156861
F0.25882352941176473
tp959
sS'gray89'
p960
(F0.8901960784313725
F0.8901960784313725
F0.8901960784313725
tp961
sS'gray88'
p962
(F0.8784313725490196
F0.8784313725490196
F0.8784313725490196
tp963
sS'magenta2'
p964
(F0.93333333333333335
F0
F0.93333333333333335
tp965
sS'magenta4'
p966
(F0.54509803921568623
F0
F0.54509803921568623
tp967
sS'gray87'
p968
(F0.87058823529411766
F0.87058823529411766
F0.87058823529411766
tp969
sS'magenta3'
p970
(F0.80392156862745101
F0
F0.80392156862745101
tp971
sS'IndianRed'
p972
(F0.80392156862745101
F0.36078431372549019
F0.36078431372549019
tp973
sS'SlateBlue2'
p974
(F0.47843137254901963
F0.40392156862745099
F0.93333333333333335
tp975
sS'magenta1'
p976
(F1
F0
F1
tp977
sS'blue violet'
p978
(F0.54117647058823526
F0.16862745098039217
F0.88627450980392153
tp979
sS'LightBlue'
p980
(F0.67843137254901964
F0.84705882352941175
F0.90196078431372551
tp981
sS'grey75'
p982
(F0.74901960784313726
F0.74901960784313726
F0.74901960784313726
tp983
sS'PeachPuff4'
p984
(F0.54509803921568623
F0.46666666666666667
F0.396078431372549
tp985
sS'seashell'
p986
(F1
F0.96078431372549022
F0.93333333333333335
tp987
sS'SaddleBrown'
p988
(F0.54509803921568623
F0.27058823529411763
F0.074509803921568626
tp989
sS'PeachPuff1'
p990
(F1
F0.85490196078431369
F0.72549019607843135
tp991
sS'PeachPuff2'
p992
(F0.93333333333333335
F0.79607843137254897
F0.67843137254901964
tp993
sS'PeachPuff3'
p994
(F0.80392156862745101
F0.68627450980392157
F0.58431372549019611
tp995
sS'dark goldenrod'
p996
(F0.72156862745098038
F0.52549019607843139
F0.043137254901960784
tp997
sS'gray100'
p998
(F1
F1
F1
tp999
sS'aquamarine'
p1000
(F0.49803921568627452
F1
F0.83137254901960789
tp1001
sS'LemonChiffon2'
p1002
(F0.93333333333333335
F0.9137254901960784
F0.74901960784313726
tp1003
sS'LemonChiffon1'
p1004
(F1
F0.98039215686274506
F0.80392156862745101
tp1005
sS'tan4'
p1006
(F0.54509803921568623
F0.35294117647058826
F0.16862745098039217
tp1007
sS'tan3'
p1008
(F0.80392156862745101
F0.52156862745098043
F0.24705882352941178
tp1009
sS'tan2'
p1010
(F0.93333333333333335
F0.60392156862745094
F0.28627450980392155
tp1011
sS'tan1'
p1012
(F1
F0.6470588235294118
F0.30980392156862746
tp1013
sS'LemonChiffon4'
p1014
(F0.54509803921568623
F0.53725490196078429
F0.4392156862745098
tp1015
sS'IndianRed1'
p1016
(F1
F0.41568627450980394
F0.41568627450980394
tp1017
sS'red3'
p1018
(F0.80392156862745101
F0
F0
tp1019
sS'OliveDrab4'
p1020
(F0.41176470588235292
F0.54509803921568623
F0.13333333333333333
tp1021
sS'OldLace'
p1022
(F0.99215686274509807
F0.96078431372549022
F0.90196078431372551
tp1023
sS'LightSkyBlue'
p1024
(F0.52941176470588236
F0.80784313725490198
F0.98039215686274506
tp1025
sS'gray84'
p1026
(F0.83921568627450982
F0.83921568627450982
F0.83921568627450982
tp1027
sS'PowderBlue'
p1028
(F0.69019607843137254
F0.8784313725490196
F0.90196078431372551
tp1029
sS'RoyalBlue'
p1030
(F0.25490196078431371
F0.41176470588235292
F0.88235294117647056
tp1031
sS'LightSkyBlue4'
p1032
(F0.37647058823529411
F0.4823529411764706
F0.54509803921568623
tp1033
sS'VioletRed3'
p1034
(F0.80392156862745101
F0.19607843137254902
F0.47058823529411764
tp1035
sS'LightSkyBlue1'
p1036
(F0.69019607843137254
F0.88627450980392153
F1
tp1037
sS'LightSkyBlue2'
p1038
(F0.64313725490196083
F0.82745098039215681
F0.93333333333333335
tp1039
sS'LightSkyBlue3'
p1040
(F0.55294117647058827
F0.71372549019607845
F0.80392156862745101
tp1041
sS'dark cyan'
p1042
(F0
F0.54509803921568623
F0.54509803921568623
tp1043
sS'LightYellow1'
p1044
(F1
F1
F0.8784313725490196
tp1045
sS'LightYellow2'
p1046
(F0.93333333333333335
F0.93333333333333335
F0.81960784313725488
tp1047
sS'LightYellow3'
p1048
(F0.80392156862745101
F0.80392156862745101
F0.70588235294117652
tp1049
sS'LightYellow4'
p1050
(F0.54509803921568623
F0.54509803921568623
F0.47843137254901963
tp1051
sS'goldenrod4'
p1052
(F0.54509803921568623
F0.41176470588235292
F0.078431372549019607
tp1053
sS'grey35'
p1054
(F0.34901960784313724
F0.34901960784313724
F0.34901960784313724
tp1055
sS'goldenrod1'
p1056
(F1
F0.75686274509803919
F0.14509803921568629
tp1057
sS'goldenrod2'
p1058
(F0.93333333333333335
F0.70588235294117652
F0.13333333333333333
tp1059
sS'goldenrod3'
p1060
(F0.80392156862745101
F0.60784313725490191
F0.11372549019607843
tp1061
sS'light goldenrod yellow'
p1062
(F0.98039215686274506
F0.98039215686274506
F0.82352941176470584
tp1063
sS'LemonChiffon'
p1064
(F1
F0.98039215686274506
F0.80392156862745101
tp1065
sS'burlywood1'
p1066
(F1
F0.82745098039215681
F0.60784313725490191
tp1067
sS'YellowGreen'
p1068
(F0.60392156862745094
F0.80392156862745101
F0.19607843137254902
tp1069
sS'LightCoral'
p1070
(F0.94117647058823528
F0.50196078431372548
F0.50196078431372548
tp1071
sS'burlywood3'
p1072
(F0.80392156862745101
F0.66666666666666663
F0.49019607843137253
tp1073
sS'ivory3'
p1074
(F0.80392156862745101
F0.80392156862745101
F0.75686274509803919
tp1075
sS'ivory2'
p1076
(F0.93333333333333335
F0.93333333333333335
F0.8784313725490196
tp1077
sS'ivory1'
p1078
(F1
F1
F0.94117647058823528
tp1079
sS'grey8'
p1080
(F0.078431372549019607
F0.078431372549019607
F0.078431372549019607
tp1081
sS'ivory4'
p1082
(F0.54509803921568623
F0.54509803921568623
F0.51372549019607838
tp1083
sS'mint cream'
p1084
(F0.96078431372549022
F1
F0.98039215686274506
tp1085
sS'grey9'
p1086
(F0.090196078431372548
F0.090196078431372548
F0.090196078431372548
tp1087
sS'burlywood4'
p1088
(F0.54509803921568623
F0.45098039215686275
F0.33333333333333331
tp1089
sS'DarkSalmon'
p1090
(F0.9137254901960784
F0.58823529411764708
F0.47843137254901963
tp1091
sS'SlateGray1'
p1092
(F0.77647058823529413
F0.88627450980392153
F1
tp1093
sS'SlateGray2'
p1094
(F0.72549019607843135
F0.82745098039215681
F0.93333333333333335
tp1095
sS'SlateGray3'
p1096
(F0.62352941176470589
F0.71372549019607845
F0.80392156862745101
tp1097
sS'SlateGray4'
p1098
(F0.42352941176470588
F0.4823529411764706
F0.54509803921568623
tp1099
sS'RosyBrown2'
p1100
(F0.93333333333333335
F0.70588235294117652
F0.70588235294117652
tp1101
sS'RosyBrown1'
p1102
(F1
F0.75686274509803919
F0.75686274509803919
tp1103
sS'dark grey'
p1104
(F0.66274509803921566
F0.66274509803921566
F0.66274509803921566
tp1105
sS'dark salmon'
p1106
(F0.9137254901960784
F0.58823529411764708
F0.47843137254901963
tp1107
sS'gray85'
p1108
(F0.85098039215686272
F0.85098039215686272
F0.85098039215686272
tp1109
sS'medium orchid'
p1110
(F0.72941176470588232
F0.33333333333333331
F0.82745098039215681
tp1111
sS'LightGreen'
p1112
(F0.56470588235294117
F0.93333333333333335
F0.56470588235294117
tp1113
sS'LavenderBlush1'
p1114
(F1
F0.94117647058823528
F0.96078431372549022
tp1115
sS'grey73'
p1116
(F0.72941176470588232
F0.72941176470588232
F0.72941176470588232
tp1117
sS'LavenderBlush3'
p1118
(F0.80392156862745101
F0.75686274509803919
F0.77254901960784317
tp1119
sS'LavenderBlush2'
p1120
(F0.93333333333333335
F0.8784313725490196
F0.89803921568627454
tp1121
sS'grey76'
p1122
(F0.76078431372549016
F0.76078431372549016
F0.76078431372549016
tp1123
sS'LavenderBlush4'
p1124
(F0.54509803921568623
F0.51372549019607838
F0.52549019607843139
tp1125
sS'deep sky blue'
p1126
(F0
F0.74901960784313726
F1
tp1127
sS'dark slate gray'
p1128
(F0.18431372549019609
F0.30980392156862746
F0.30980392156862746
tp1129
sS'pink1'
p1130
(F1
F0.70980392156862748
F0.77254901960784317
tp1131
sS'OrangeRed'
p1132
(F1
F0.27058823529411763
F0
tp1133
sS'pink2'
p1134
(F0.93333333333333335
F0.66274509803921566
F0.72156862745098038
tp1135
sS'pink4'
p1136
(F0.54509803921568623
F0.38823529411764707
F0.42352941176470588
tp1137
sS'gray47'
p1138
(F0.47058823529411764
F0.47058823529411764
F0.47058823529411764
tp1139
sS'gray46'
p1140
(F0.45882352941176469
F0.45882352941176469
F0.45882352941176469
tp1141
sS'gray45'
p1142
(F0.45098039215686275
F0.45098039215686275
F0.45098039215686275
tp1143
sS'gray44'
p1144
(F0.4392156862745098
F0.4392156862745098
F0.4392156862745098
tp1145
sS'gray43'
p1146
(F0.43137254901960786
F0.43137254901960786
F0.43137254901960786
tp1147
sS'gray42'
p1148
(F0.41960784313725491
F0.41960784313725491
F0.41960784313725491
tp1149
sS'gray41'
p1150
(F0.41176470588235292
F0.41176470588235292
F0.41176470588235292
tp1151
sS'gray40'
p1152
(F0.40000000000000002
F0.40000000000000002
F0.40000000000000002
tp1153
sS'gray49'
p1154
(F0.49019607843137253
F0.49019607843137253
F0.49019607843137253
tp1155
sS'gray48'
p1156
(F0.47843137254901963
F0.47843137254901963
F0.47843137254901963
tp1157
sS'MediumAquamarine'
p1158
(F0.40000000000000002
F0.80392156862745101
F0.66666666666666663
tp1159
sS'light gray'
p1160
(F0.82745098039215681
F0.82745098039215681
F0.82745098039215681
tp1161
sS'powder blue'
p1162
(F0.69019607843137254
F0.8784313725490196
F0.90196078431372551
tp1163
sS'azure1'
p1164
(F0.94117647058823528
F1
F1
tp1165
sS'azure3'
p1166
(F0.75686274509803919
F0.80392156862745101
F0.80392156862745101
tp1167
sS'azure2'
p1168
(F0.8784313725490196
F0.93333333333333335
F0.93333333333333335
tp1169
sS'sea green'
p1170
(F0.1803921568627451
F0.54509803921568623
F0.3411764705882353
tp1171
sS'firebrick'
p1172
(F0.69803921568627447
F0.13333333333333333
F0.13333333333333333
tp1173
sS'grey54'
p1174
(F0.54117647058823526
F0.54117647058823526
F0.54117647058823526
tp1175
sS'DarkGrey'
p1176
(F0.66274509803921566
F0.66274509803921566
F0.66274509803921566
tp1177
sS'grey57'
p1178
(F0.56862745098039214
F0.56862745098039214
F0.56862745098039214
tp1179
sS'medium slate blue'
p1180
(F0.4823529411764706
F0.40784313725490196
F0.93333333333333335
tp1181
sS'light yellow'
p1182
(F1
F1
F0.8784313725490196
tp1183
sS'SlateBlue4'
p1184
(F0.27843137254901962
F0.23529411764705882
F0.54509803921568623
tp1185
sS'SlateBlue3'
p1186
(F0.41176470588235292
F0.34901960784313724
F0.80392156862745101
tp1187
sS'pale turquoise'
p1188
(F0.68627450980392157
F0.93333333333333335
F0.93333333333333335
tp1189
sS'SlateBlue1'
p1190
(F0.51372549019607838
F0.43529411764705883
F1
tp1191
sS'grey51'
p1192
(F0.50980392156862742
F0.50980392156862742
F0.50980392156862742
tp1193
sS'chartreuse'
p1194
(F0.49803921568627452
F1
F0
tp1195
sS'dark sea green'
p1196
(F0.5607843137254902
F0.73725490196078436
F0.5607843137254902
tp1197
sS'DarkOliveGreen4'
p1198
(F0.43137254901960786
F0.54509803921568623
F0.23921568627450981
tp1199
sS'turquoise'
p1200
(F0.25098039215686274
F0.8784313725490196
F0.81568627450980391
tp1201
sS'DarkOliveGreen1'
p1202
(F0.792156862745098
F1
F0.4392156862745098
tp1203
sS'DarkOliveGreen3'
p1204
(F0.63529411764705879
F0.80392156862745101
F0.35294117647058826
tp1205
sS'DarkOliveGreen2'
p1206
(F0.73725490196078436
F0.93333333333333335
F0.40784313725490196
tp1207
sS'grey6'
p1208
(F0.058823529411764705
F0.058823529411764705
F0.058823529411764705
tp1209
sS'grey7'
p1210
(F0.070588235294117646
F0.070588235294117646
F0.070588235294117646
tp1211
sS'grey4'
p1212
(F0.039215686274509803
F0.039215686274509803
F0.039215686274509803
tp1213
sS'grey5'
p1214
(F0.050980392156862744
F0.050980392156862744
F0.050980392156862744
tp1215
sS'grey2'
p1216
(F0.019607843137254902
F0.019607843137254902
F0.019607843137254902
tp1217
sS'grey3'
p1218
(F0.031372549019607843
F0.031372549019607843
F0.031372549019607843
tp1219
sS'grey0'
p1220
(F0
F0
F0
tp1221
sS'grey1'
p1222
(F0.011764705882352941
F0.011764705882352941
F0.011764705882352941
tp1223
sS'gray50'
p1224
(F0.49803921568627452
F0.49803921568627452
F0.49803921568627452
tp1225
sS'cyan1'
p1226
(F0
F1
F1
tp1227
sS'gray51'
p1228
(F0.50980392156862742
F0.50980392156862742
F0.50980392156862742
tp1229
sS'gray24'
p1230
(F0.23921568627450981
F0.23921568627450981
F0.23921568627450981
tp1231
sS'gray53'
p1232
(F0.52941176470588236
F0.52941176470588236
F0.52941176470588236
tp1233
sS'HotPink'
p1234
(F1
F0.41176470588235292
F0.70588235294117652
tp1235
sS'DarkGoldenrod4'
p1236
(F0.54509803921568623
F0.396078431372549
F0.031372549019607843
tp1237
sS'gray54'
p1238
(F0.54117647058823526
F0.54117647058823526
F0.54117647058823526
tp1239
sS'DarkGoldenrod1'
p1240
(F1
F0.72549019607843135
F0.058823529411764705
tp1241
sS'DarkGoldenrod2'
p1242
(F0.93333333333333335
F0.67843137254901964
F0.054901960784313725
tp1243
sS'DarkGoldenrod3'
p1244
(F0.80392156862745101
F0.58431372549019611
F0.047058823529411764
tp1245
sS'purple3'
p1246
(F0.49019607843137253
F0.14901960784313725
F0.80392156862745101
tp1247
sS'DeepPink'
p1248
(F1
F0.078431372549019607
F0.57647058823529407
tp1249
sS'gray28'
p1250
(F0.27843137254901962
F0.27843137254901962
F0.27843137254901962
tp1251
sS'purple2'
p1252
(F0.56862745098039214
F0.17254901960784313
F0.93333333333333335
tp1253
sS'DarkCyan'
p1254
(F0
F0.54509803921568623
F0.54509803921568623
tp1255
sS'peach puff'
p1256
(F1
F0.85490196078431369
F0.72549019607843135
tp1257
sS'GreenYellow'
p1258
(F0.67843137254901964
F1
F0.18431372549019609
tp1259
sS'DarkOrange4'
p1260
(F0.54509803921568623
F0.27058823529411763
F0
tp1261
sS'DarkOrange1'
p1262
(F1
F0.49803921568627452
F0
tp1263
sS'DarkOrange3'
p1264
(F0.80392156862745101
F0.40000000000000002
F0
tp1265
sS'orchid'
p1266
(F0.85490196078431369
F0.4392156862745098
F0.83921568627450982
tp1267
sS'purple'
p1268
(F0.62745098039215685
F0.12549019607843137
F0.94117647058823528
tp1269
sS'grey27'
p1270
(F0.27058823529411763
F0.27058823529411763
F0.27058823529411763
tp1271
sS'wheat4'
p1272
(F0.54509803921568623
F0.49411764705882355
F0.40000000000000002
tp1273
sS'wheat1'
p1274
(F1
F0.90588235294117647
F0.72941176470588232
tp1275
sS'wheat3'
p1276
(F0.80392156862745101
F0.72941176470588232
F0.58823529411764708
tp1277
sS'wheat2'
p1278
(F0.93333333333333335
F0.84705882352941175
F0.68235294117647061
tp1279
sS'coral3'
p1280
(F0.80392156862745101
F0.35686274509803922
F0.27058823529411763
tp1281
sS'coral2'
p1282
(F0.93333333333333335
F0.41568627450980394
F0.31372549019607843
tp1283
sS'coral1'
p1284
(F1
F0.44705882352941179
F0.33725490196078434
tp1285
sS'thistle1'
p1286
(F1
F0.88235294117647056
F1
tp1287
sS'PaleTurquoise'
p1288
(F0.68627450980392157
F0.93333333333333335
F0.93333333333333335
tp1289
sS'bisque'
p1290
(F1
F0.89411764705882357
F0.7686274509803922
tp1291
sS'DeepPink3'
p1292
(F0.80392156862745101
F0.062745098039215685
F0.46274509803921571
tp1293
sS'DeepPink2'
p1294
(F0.93333333333333335
F0.070588235294117646
F0.53725490196078429
tp1295
sS'DeepPink1'
p1296
(F1
F0.078431372549019607
F0.57647058823529407
tp1297
sS'khaki'
p1298
(F0.94117647058823528
F0.90196078431372551
F0.5490196078431373
tp1299
sS'wheat'
p1300
(F0.96078431372549022
F0.87058823529411766
F0.70196078431372544
tp1301
sS'MediumSeaGreen'
p1302
(F0.23529411764705882
F0.70196078431372544
F0.44313725490196076
tp1303
sS'DeepPink4'
p1304
(F0.54509803921568623
F0.039215686274509803
F0.31372549019607843
tp1305
sS'SpringGreen4'
p1306
(F0
F0.54509803921568623
F0.27058823529411763
tp1307
sS'DarkSlateBlue'
p1308
(F0.28235294117647058
F0.23921568627450981
F0.54509803921568623
tp1309
sS'PaleVioletRed4'
p1310
(F0.54509803921568623
F0.27843137254901962
F0.36470588235294116
tp1311
sS'PaleVioletRed1'
p1312
(F1
F0.50980392156862742
F0.6705882352941176
tp1313
sS'PaleVioletRed2'
p1314
(F0.93333333333333335
F0.47450980392156861
F0.62352941176470589
tp1315
sS'PaleVioletRed3'
p1316
(F0.80392156862745101
F0.40784313725490196
F0.53725490196078429
tp1317
sS'dark slate grey'
p1318
(F0.18431372549019609
F0.30980392156862746
F0.30980392156862746
tp1319
sS'AntiqueWhite'
p1320
(F0.98039215686274506
F0.92156862745098034
F0.84313725490196079
tp1321
sS'light salmon'
p1322
(F1
F0.62745098039215685
F0.47843137254901963
tp1323
sS'PaleTurquoise4'
p1324
(F0.40000000000000002
F0.54509803921568623
F0.54509803921568623
tp1325
sS'PaleTurquoise3'
p1326
(F0.58823529411764708
F0.80392156862745101
F0.80392156862745101
tp1327
sS'PaleTurquoise2'
p1328
(F0.68235294117647061
F0.93333333333333335
F0.93333333333333335
tp1329
sS'PaleTurquoise1'
p1330
(F0.73333333333333328
F1
F1
tp1331
sS'light grey'
p1332
(F0.82745098039215681
F0.82745098039215681
F0.82745098039215681
tp1333
sS'plum'
p1334
(F0.8666666666666667
F0.62745098039215685
F0.8666666666666667
tp1335
sS'beige'
p1336
(F0.96078431372549022
F0.96078431372549022
F0.86274509803921573
tp1337
sS'SpringGreen'
p1338
(F0
F1
F0.49803921568627452
tp1339
sS'azure'
p1340
(F0.94117647058823528
F1
F1
tp1341
sS'honeydew1'
p1342
(F0.94117647058823528
F1
F0.94117647058823528
tp1343
sS'honeydew2'
p1344
(F0.8784313725490196
F0.93333333333333335
F0.8784313725490196
tp1345
sS'honeydew3'
p1346
(F0.75686274509803919
F0.80392156862745101
F0.75686274509803919
tp1347
sS'honeydew4'
p1348
(F0.51372549019607838
F0.54509803921568623
F0.51372549019607838
tp1349
sS'gray57'
p1350
(F0.56862745098039214
F0.56862745098039214
F0.56862745098039214
tp1351
sS'snow4'
p1352
(F0.54509803921568623
F0.53725490196078429
F0.53725490196078429
tp1353
sS'snow2'
p1354
(F0.93333333333333335
F0.9137254901960784
F0.9137254901960784
tp1355
sS'snow3'
p1356
(F0.80392156862745101
F0.78823529411764703
F0.78823529411764703
tp1357
sS'snow1'
p1358
(F1
F0.98039215686274506
F0.98039215686274506
tp1359
sS'SandyBrown'
p1360
(F0.95686274509803926
F0.64313725490196083
F0.37647058823529411
tp1361
sS'grey13'
p1362
(F0.12941176470588237
F0.12941176470588237
F0.12941176470588237
tp1363
sS'SeaGreen4'
p1364
(F0.1803921568627451
F0.54509803921568623
F0.3411764705882353
tp1365
sS'sandy brown'
p1366
(F0.95686274509803926
F0.64313725490196083
F0.37647058823529411
tp1367
sS'SeaGreen2'
p1368
(F0.30588235294117649
F0.93333333333333335
F0.58039215686274515
tp1369
sS'SeaGreen1'
p1370
(F0.32941176470588235
F1
F0.62352941176470589
tp1371
sS'grey29'
p1372
(F0.29019607843137257
F0.29019607843137257
F0.29019607843137257
tp1373
sS'grey28'
p1374
(F0.27843137254901962
F0.27843137254901962
F0.27843137254901962
tp1375
sS'grey25'
p1376
(F0.25098039215686274
F0.25098039215686274
F0.25098039215686274
tp1377
sS'grey24'
p1378
(F0.23921568627450981
F0.23921568627450981
F0.23921568627450981
tp1379
sS'light pink'
p1380
(F1
F0.71372549019607845
F0.75686274509803919
tp1381
sS'grey26'
p1382
(F0.25882352941176473
F0.25882352941176473
F0.25882352941176473
tp1383
sS'grey21'
p1384
(F0.21176470588235294
F0.21176470588235294
F0.21176470588235294
tp1385
sS'grey20'
p1386
(F0.20000000000000001
F0.20000000000000001
F0.20000000000000001
tp1387
sS'grey23'
p1388
(F0.23137254901960785
F0.23137254901960785
F0.23137254901960785
tp1389
sS'grey22'
p1390
(F0.2196078431372549
F0.2196078431372549
F0.2196078431372549
tp1391
sS'gray78'
p1392
(F0.7803921568627451
F0.7803921568627451
F0.7803921568627451
tp1393
sS'gray79'
p1394
(F0.78823529411764703
F0.78823529411764703
F0.78823529411764703
tp1395
sS'gray76'
p1396
(F0.76078431372549016
F0.76078431372549016
F0.76078431372549016
tp1397
sS'gray77'
p1398
(F0.7686274509803922
F0.7686274509803922
F0.7686274509803922
tp1399
sS'gray74'
p1400
(F0.74117647058823533
F0.74117647058823533
F0.74117647058823533
tp1401
sS'gray75'
p1402
(F0.74901960784313726
F0.74901960784313726
F0.74901960784313726
tp1403
sS'gray72'
p1404
(F0.72156862745098038
F0.72156862745098038
F0.72156862745098038
tp1405
sS'medium sea green'
p1406
(F0.23529411764705882
F0.70196078431372544
F0.44313725490196076
tp1407
sS'olive drab'
p1408
(F0.41960784313725491
F0.55686274509803924
F0.13725490196078433
tp1409
sS'gray71'
p1410
(F0.70980392156862748
F0.70980392156862748
F0.70980392156862748
tp1411
sS'ghost white'
p1412
(F0.97254901960784312
F0.97254901960784312
F1
tp1413
sS'ivory'
p1414
(F1
F1
F0.94117647058823528
tp1415
sS'light coral'
p1416
(F0.94117647058823528
F0.50196078431372548
F0.50196078431372548
tp1417
sS'LemonChiffon3'
p1418
(F0.80392156862745101
F0.78823529411764703
F0.6470588235294118
tp1419
sS'DeepSkyBlue4'
p1420
(F0
F0.40784313725490196
F0.54509803921568623
tp1421
sS'DeepSkyBlue3'
p1422
(F0
F0.60392156862745094
F0.80392156862745101
tp1423
sS'DeepSkyBlue2'
p1424
(F0
F0.69803921568627447
F0.93333333333333335
tp1425
sS'DeepSkyBlue1'
p1426
(F0
F0.74901960784313726
F1
tp1427
sS'cornsilk4'
p1428
(F0.54509803921568623
F0.53333333333333333
F0.47058823529411764
tp1429
sS'cornsilk2'
p1430
(F0.93333333333333335
F0.90980392156862744
F0.80392156862745101
tp1431
sS'cornsilk3'
p1432
(F0.80392156862745101
F0.78431372549019607
F0.69411764705882351
tp1433
sS'CadetBlue'
p1434
(F0.37254901960784315
F0.61960784313725492
F0.62745098039215685
tp1435
sS'cornsilk1'
p1436
(F1
F0.97254901960784312
F0.86274509803921573
tp1437
sS'grey90'
p1438
(F0.89803921568627454
F0.89803921568627454
F0.89803921568627454
tp1439
sS'grey91'
p1440
(F0.90980392156862744
F0.90980392156862744
F0.90980392156862744
tp1441
sS'grey92'
p1442
(F0.92156862745098034
F0.92156862745098034
F0.92156862745098034
tp1443
sS'light cyan'
p1444
(F0.8784313725490196
F1
F1
tp1445
sS'grey94'
p1446
(F0.94117647058823528
F0.94117647058823528
F0.94117647058823528
tp1447
sS'floral white'
p1448
(F1
F0.98039215686274506
F0.94117647058823528
tp1449
sS'grey96'
p1450
(F0.96078431372549022
F0.96078431372549022
F0.96078431372549022
tp1451
sS'grey97'
p1452
(F0.96862745098039216
F0.96862745098039216
F0.96862745098039216
tp1453
sS'grey98'
p1454
(F0.98039215686274506
F0.98039215686274506
F0.98039215686274506
tp1455
sS'grey99'
p1456
(F0.9882352941176471
F0.9882352941176471
F0.9882352941176471
tp1457
sS'LightSteelBlue1'
p1458
(F0.792156862745098
F0.88235294117647056
F1
tp1459
sS'LightSteelBlue2'
p1460
(F0.73725490196078436
F0.82352941176470584
F0.93333333333333335
tp1461
sS'LightSteelBlue3'
p1462
(F0.63529411764705879
F0.70980392156862748
F0.80392156862745101
tp1463
sS'LightSteelBlue4'
p1464
(F0.43137254901960786
F0.4823529411764706
F0.54509803921568623
tp1465
sS'red2'
p1466
(F0.93333333333333335
F0
F0
tp1467
sS'maroon'
p1468
(F0.69019607843137254
F0.18823529411764706
F0.37647058823529411
tp1469
sS'light sea green'
p1470
(F0.12549019607843137
F0.69803921568627447
F0.66666666666666663
tp1471
sS'spring green'
p1472
(F0
F1
F0.49803921568627452
tp1473
sS'light goldenrod'
p1474
(F0.93333333333333335
F0.8666666666666667
F0.50980392156862742
tp1475
sS'light blue'
p1476
(F0.67843137254901964
F0.84705882352941175
F0.90196078431372551
tp1477
sS'lime green'
p1478
(F0.19607843137254902
F0.80392156862745101
F0.19607843137254902
tp1479
sS'grey95'
p1480
(F0.94901960784313721
F0.94901960784313721
F0.94901960784313721
tp1481
sS'LightGoldenrodYellow'
p1482
(F0.98039215686274506
F0.98039215686274506
F0.82352941176470584
tp1483
sS'MediumBlue'
p1484
(F0
F0
F0.80392156862745101
tp1485
sS'LightSlateGray'
p1486
(F0.46666666666666667
F0.53333333333333333
F0.59999999999999998
tp1487
sS'lavender blush'
p1488
(F1
F0.94117647058823528
F0.96078431372549022
tp1489
sS'DarkOrange2'
p1490
(F0.93333333333333335
F0.46274509803921571
F0
tp1491
sS'PaleVioletRed'
p1492
(F0.85882352941176465
F0.4392156862745098
F0.57647058823529407
tp1493
sS'maroon2'
p1494
(F0.93333333333333335
F0.18823529411764706
F0.65490196078431373
tp1495
sS'dim grey'
p1496
(F0.41176470588235292
F0.41176470588235292
F0.41176470588235292
tp1497
sS'ForestGreen'
p1498
(F0.13333333333333333
F0.54509803921568623
F0.13333333333333333
tp1499
sS'dark red'
p1500
(F0.54509803921568623
F0
F0
tp1501
sS'slate blue'
p1502
(F0.41568627450980394
F0.35294117647058826
F0.80392156862745101
tp1503
sS'dark green'
p1504
(F0
F0.39215686274509803
F0
tp1505
s.